target datalayout = "e-m:e-p270:32:32-p271:32:32-p272:64:64-i64:64-i128:128-f80:128-n8:16:32:64-S128"
target triple = "x86_64-pc-linux-gnu"

%struct._stmt = type { i32, %union.anon.11, i32, i32, i32, i32 }
%union.anon.11 = type { %struct.anon.12 }
%struct.anon.12 = type { ptr, ptr, ptr, ptr, ptr, ptr, ptr }
%struct.anon.28 = type { ptr, ptr }

; Function Attrs: nounwind uwtable
define hidden ptr @_PyAST_Raise(ptr noundef %0, ptr noundef %1, i32 noundef %2, i32 noundef %3, i32 noundef %4, i32 noundef %5, ptr noundef %6) #0 {
  %8 = alloca ptr, align 8
  %9 = alloca ptr, align 8
  %10 = alloca ptr, align 8
  %11 = alloca i32, align 4
  %12 = alloca i32, align 4
  %13 = alloca i32, align 4
  %14 = alloca i32, align 4
  %15 = alloca ptr, align 8
  %16 = alloca ptr, align 8
  %17 = alloca i32, align 4
  store ptr %0, ptr %9, align 8, !tbaa !34
  store ptr %1, ptr %10, align 8, !tbaa !34
  store i32 %2, ptr %11, align 4, !tbaa !38
  store i32 %3, ptr %12, align 4, !tbaa !38
  store i32 %4, ptr %13, align 4, !tbaa !38
  store i32 %5, ptr %14, align 4, !tbaa !38
  store ptr %6, ptr %15, align 8, !tbaa !24
  call void @llvm.lifetime.start.p0(i64 8, ptr %16) #8
  %18 = load ptr, ptr %15, align 8, !tbaa !24
  %19 = call ptr @_PyArena_Malloc(ptr noundef %18, i64 noundef 80)
  store ptr %19, ptr %16, align 8, !tbaa !39
  %20 = load ptr, ptr %16, align 8, !tbaa !39
  %21 = icmp ne ptr %20, null
  br i1 %21, label %23, label %22

22:                                               ; preds = %7
  store ptr null, ptr %8, align 8
  store i32 1, ptr %17, align 4
  br label %47

23:                                               ; preds = %7
  %24 = load ptr, ptr %16, align 8, !tbaa !39
  %25 = getelementptr inbounds nuw %struct._stmt, ptr %24, i32 0, i32 0
  store i32 17, ptr %25, align 8, !tbaa !41
  %26 = load ptr, ptr %9, align 8, !tbaa !34
  %27 = load ptr, ptr %16, align 8, !tbaa !39
  %28 = getelementptr inbounds nuw %struct._stmt, ptr %27, i32 0, i32 1
  %29 = getelementptr inbounds nuw %struct.anon.28, ptr %28, i32 0, i32 0
  store ptr %26, ptr %29, align 8, !tbaa !21
  %30 = load ptr, ptr %10, align 8, !tbaa !34
  %31 = load ptr, ptr %16, align 8, !tbaa !39
  %32 = getelementptr inbounds nuw %struct._stmt, ptr %31, i32 0, i32 1
  %33 = getelementptr inbounds nuw %struct.anon.28, ptr %32, i32 0, i32 1
  store ptr %30, ptr %33, align 8, !tbaa !21
  %34 = load i32, ptr %11, align 4, !tbaa !38
  %35 = load ptr, ptr %16, align 8, !tbaa !39
  %36 = getelementptr inbounds nuw %struct._stmt, ptr %35, i32 0, i32 2
  store i32 %34, ptr %36, align 8, !tbaa !43
  %37 = load i32, ptr %12, align 4, !tbaa !38
  %38 = load ptr, ptr %16, align 8, !tbaa !39
  %39 = getelementptr inbounds nuw %struct._stmt, ptr %38, i32 0, i32 3
  store i32 %37, ptr %39, align 4, !tbaa !44
  %40 = load i32, ptr %13, align 4, !tbaa !38
  %41 = load ptr, ptr %16, align 8, !tbaa !39
  %42 = getelementptr inbounds nuw %struct._stmt, ptr %41, i32 0, i32 4
  store i32 %40, ptr %42, align 8, !tbaa !45
  %43 = load i32, ptr %14, align 4, !tbaa !38
  %44 = load ptr, ptr %16, align 8, !tbaa !39
  %45 = getelementptr inbounds nuw %struct._stmt, ptr %44, i32 0, i32 5
  store i32 %43, ptr %45, align 4, !tbaa !46
  %46 = load ptr, ptr %16, align 8, !tbaa !39
  store ptr %46, ptr %8, align 8
  store i32 1, ptr %17, align 4
  br label %47

47:                                               ; preds = %23, %22
  call void @llvm.lifetime.end.p0(i64 8, ptr %16) #8
  %48 = load ptr, ptr %8, align 8
  ret ptr %48
}