; Function Attrs: nounwind uwtable
define hidden ptr @_PyAST_Raise(ptr noundef %0, ptr noundef %1, i32 noundef %2, i32 noundef %3, i32 noundef %4, i32 noundef %5, ptr noundef %6) local_unnamed_addr #0 {
  %8 = tail call ptr @_PyArena_Malloc(ptr noundef %6, i64 noundef 80) #8
  %.not = icmp eq ptr %8, null
  br i1 %.not, label %16, label %9

9:                                                ; preds = %7
  store i32 17, ptr %8, align 8, !tbaa !20
  %10 = getelementptr inbounds nuw i8, ptr %8, i64 8
  store ptr %0, ptr %10, align 8, !tbaa !9
  %11 = getelementptr inbounds nuw i8, ptr %8, i64 16
  store ptr %1, ptr %11, align 8, !tbaa !9
  %12 = getelementptr inbounds nuw i8, ptr %8, i64 64
  store i32 %2, ptr %12, align 8, !tbaa !22
  %13 = getelementptr inbounds nuw i8, ptr %8, i64 68
  store i32 %3, ptr %13, align 4, !tbaa !23
  %14 = getelementptr inbounds nuw i8, ptr %8, i64 72
  store i32 %4, ptr %14, align 8, !tbaa !24
  %15 = getelementptr inbounds nuw i8, ptr %8, i64 76
  store i32 %5, ptr %15, align 4, !tbaa !25
  br label %16

16:                                               ; preds = %7, %9
  ret ptr %8
}